target datalayout = "e-m:e-p270:32:32-p271:32:32-p272:64:64-i64:64-i128:128-f80:128-n8:16:32:64-S128"
target triple = "x86_64-pc-linux-gnu"

%"class.Ipopt::ReferencedObject.base" = type <{ ptr, i32 }>
%"class.Ipopt::SmartPtr.10" = type { ptr }
%"class.Ipopt::RestoIpoptNLP" = type { %"class.Ipopt::IpoptNLP", %"class.Ipopt::SmartPtr.11", %"class.Ipopt::SmartPtr.12", %"class.Ipopt::SmartPtr.13", %"class.Ipopt::SmartPtr.14", %"class.Ipopt::SmartPtr.14", %"class.Ipopt::SmartPtr.14", %"class.Ipopt::SmartPtr.14", %"class.Ipopt::SmartPtr.15", %"class.Ipopt::SmartPtr.14", %"class.Ipopt::SmartPtr.15", %"class.Ipopt::SmartPtr.14", %"class.Ipopt::SmartPtr.15", %"class.Ipopt::SmartPtr.14", %"class.Ipopt::SmartPtr.15", %"class.Ipopt::SmartPtr.15", %"class.Ipopt::SmartPtr.15", %"class.Ipopt::SmartPtr.16", %"class.Ipopt::SmartPtr.17", %"class.Ipopt::SmartPtr.18", %"class.Ipopt::SmartPtr.17", %"class.Ipopt::SmartPtr.18", %"class.Ipopt::SmartPtr.17", %"class.Ipopt::SmartPtr.18", %"class.Ipopt::SmartPtr.17", %"class.Ipopt::SmartPtr.18", double, double, double, %"class.Ipopt::SmartPtr.19", %"class.Ipopt::SmartPtr.19", %"class.Ipopt::SmartPtr.20", %"class.Ipopt::SmartPtr.19", i8, i32, i8, i32, i32, i32, i32, i32, i32, i32 }
%"class.Ipopt::IpoptNLP" = type { %"class.Ipopt::ReferencedObject.base", %"class.Ipopt::SmartPtr.10" }
%"class.Ipopt::SmartPtr.11" = type { ptr }
%"class.Ipopt::SmartPtr.12" = type { ptr }
%"class.Ipopt::SmartPtr.13" = type { ptr }
%"class.Ipopt::SmartPtr.14" = type { ptr }
%"class.Ipopt::SmartPtr.15" = type { ptr }
%"class.Ipopt::SmartPtr.16" = type { ptr }
%"class.Ipopt::SmartPtr.17" = type { ptr }
%"class.Ipopt::SmartPtr.18" = type { ptr }
%"class.Ipopt::SmartPtr.20" = type { ptr }
%"class.Ipopt::SmartPtr.19" = type { ptr }

; Function Attrs: mustprogress nounwind uwtable
define noundef double @_ZNK5Ipopt13RestoIpoptNLP3EtaEd(ptr noundef nonnull align 8 dereferenceable(320) %0, double noundef %1) #4 align 2 {
  %3 = alloca ptr, align 8
  %4 = alloca double, align 8
  store ptr %0, ptr %3, align 8
  store double %1, ptr %4, align 8
  %5 = load ptr, ptr %3, align 8
  %6 = getelementptr inbounds %"class.Ipopt::RestoIpoptNLP", ptr %5, i32 0, i32 27
  %7 = load double, ptr %6, align 8
  %8 = load double, ptr %4, align 8
  %9 = getelementptr inbounds %"class.Ipopt::RestoIpoptNLP", ptr %5, i32 0, i32 28
  %10 = load double, ptr %9, align 8
  %11 = call double @pow(double noundef %8, double noundef %10) #3
  %12 = fmul double %7, %11
  ret double %12
}