; Function Attrs: mustprogress nofree nounwind willreturn memory(write, argmem: readwrite) uwtable
define noundef double @_ZNK5Ipopt13RestoIpoptNLP3EtaEd(ptr nocapture noundef nonnull readonly align 8 dereferenceable(320) %0, double noundef %1) local_unnamed_addr #8 align 2 {
  %3 = getelementptr inbounds i8, ptr %0, i64 232
  %4 = load double, ptr %3, align 8
  %5 = getelementptr inbounds i8, ptr %0, i64 240
  %6 = load double, ptr %5, align 8
  %7 = tail call double @pow(double noundef %1, double noundef %6) #17
  %8 = fmul double %4, %7
  ret double %8
}